target datalayout = "e-m:e-p270:32:32-p271:32:32-p272:64:64-i64:64-i128:128-f80:128-n8:16:32:64-S128"
target triple = "x86_64-pc-linux-gnu"

; Function Attrs: mustprogress uwtable
define internal noundef i32 @_ZL26eventfd_check_availabilityv() #4 {
  %1 = alloca i32, align 4
  %2 = alloca i32, align 4
  call void @llvm.lifetime.start.p0(i64 4, ptr %1) #3
  %3 = call i32 @eventfd(i32 noundef 0, i32 noundef 0) #3
  store i32 %3, ptr %1, align 4, !tbaa !12
  call void @llvm.lifetime.start.p0(i64 4, ptr %2) #3
  %4 = load i32, ptr %1, align 4, !tbaa !12
  %5 = icmp sge i32 %4, 0
  %6 = zext i1 %5 to i32
  store i32 %6, ptr %2, align 4, !tbaa !12
  %7 = load i32, ptr %2, align 4, !tbaa !12
  %8 = icmp ne i32 %7, 0
  br i1 %8, label %9, label %12

9:                                                ; preds = %0
  %10 = load i32, ptr %1, align 4, !tbaa !12
  %11 = call i32 @close(i32 noundef %10)
  br label %12

12:                                               ; preds = %9, %0
  %13 = load i32, ptr %2, align 4, !tbaa !12
  call void @llvm.lifetime.end.p0(i64 4, ptr %2) #3
  call void @llvm.lifetime.end.p0(i64 4, ptr %1) #3
  ret i32 %13
}