; Function Attrs: mustprogress uwtable
define internal noundef range(i32 0, 2) i32 @_ZL26eventfd_check_availabilityv() #3 {
  %1 = tail call i32 @eventfd(i32 noundef 0, i32 noundef 0) #13
  %2 = icmp sgt i32 %1, -1
  br i1 %2, label %3, label %5

3:                                                ; preds = %0
  %4 = tail call i32 @close(i32 noundef %1)
  br label %5

5:                                                ; preds = %3, %0
  %6 = zext i1 %2 to i32
  ret i32 %6
}